target datalayout = "e-m:e-p270:32:32-p271:32:32-p272:64:64-i64:64-i128:128-f80:128-n8:16:32:64-S128"
target triple = "x86_64-pc-linux-gnu"

%"class.LIEF::MachO::RelocationObject" = type { %"class.LIEF::MachO::Relocation", i8, i8, i32 }
%"class.LIEF::MachO::Relocation" = type { %"class.LIEF::Relocation.base", ptr, i8, i32, ptr, ptr }
%"class.LIEF::Relocation.base" = type <{ %"class.LIEF::Object", i64, i8 }>
%"class.LIEF::Object" = type { ptr }
%"class.LIEF::Relocation" = type <{ %"class.LIEF::Object", i64, i8, [7 x i8] }>
%"struct.LIEF::MachO::details::scattered_relocation_info" = type { i32, i32 }

@_ZTVN4LIEF5MachO10RelocationE = external unnamed_addr constant { [22 x ptr] }, align 8
@_ZTVN4LIEF10RelocationE = external unnamed_addr constant { [15 x ptr] }, align 8

; Function Attrs: mustprogress nounwind uwtable
define linkonce_odr hidden void @_ZN4LIEF10RelocationC2Ev(ptr noundef nonnull align 8 dereferenceable(17) %0) unnamed_addr #1 comdat align 2 {
  %2 = alloca ptr, align 8
  store ptr %0, ptr %2, align 8, !tbaa !58
  %3 = load ptr, ptr %2, align 8
  call void @_ZN4LIEF6ObjectC2Ev(ptr noundef nonnull align 8 dereferenceable(8) %3)
  store ptr getelementptr inbounds inrange(-16, 104) ({ [15 x ptr] }, ptr @_ZTVN4LIEF10RelocationE, i32 0, i32 0, i32 2), ptr %3, align 8, !tbaa !19
  %4 = getelementptr inbounds nuw %"class.LIEF::Relocation", ptr %3, i32 0, i32 1
  store i64 0, ptr %4, align 8, !tbaa !36
  %5 = getelementptr inbounds nuw %"class.LIEF::Relocation", ptr %3, i32 0, i32 2
  store i8 0, ptr %5, align 8, !tbaa !37
  ret void
}

; Function Attrs: mustprogress nounwind uwtable
define linkonce_odr hidden void @_ZN4LIEF5MachO10RelocationC2Ev(ptr noundef nonnull align 8 dereferenceable(56) %0) unnamed_addr #1 comdat align 2 {
  %2 = alloca ptr, align 8
  store ptr %0, ptr %2, align 8, !tbaa !39
  %3 = load ptr, ptr %2, align 8
  call void @_ZN4LIEF10RelocationC2Ev(ptr noundef nonnull align 8 dereferenceable(17) %3)
  store ptr getelementptr inbounds inrange(-16, 160) ({ [22 x ptr] }, ptr @_ZTVN4LIEF5MachO10RelocationE, i32 0, i32 0, i32 2), ptr %3, align 8, !tbaa !19
  %4 = getelementptr inbounds nuw %"class.LIEF::MachO::Relocation", ptr %3, i32 0, i32 1
  store ptr null, ptr %4, align 8, !tbaa !41
  %5 = getelementptr inbounds nuw %"class.LIEF::MachO::Relocation", ptr %3, i32 0, i32 2
  store i8 0, ptr %5, align 8, !tbaa !38
  %6 = getelementptr inbounds nuw %"class.LIEF::MachO::Relocation", ptr %3, i32 0, i32 3
  store i32 -1, ptr %6, align 4, !tbaa !42
  %7 = getelementptr inbounds nuw %"class.LIEF::MachO::Relocation", ptr %3, i32 0, i32 4
  store ptr null, ptr %7, align 8, !tbaa !43
  %8 = getelementptr inbounds nuw %"class.LIEF::MachO::Relocation", ptr %3, i32 0, i32 5
  store ptr null, ptr %8, align 8, !tbaa !44
  ret void
}

; Function Attrs: mustprogress nounwind uwtable
define void @_ZN4LIEF5MachO16RelocationObjectC2ERKNS0_7details25scattered_relocation_infoE(ptr noundef nonnull align 8 dereferenceable(64) %0, ptr noundef nonnull align 4 dereferenceable(8) %1) unnamed_addr #1 align 2 {
  %3 = alloca ptr, align 8
  %4 = alloca ptr, align 8
  store ptr %0, ptr %3, align 8, !tbaa !15
  store ptr %1, ptr %4, align 8, !tbaa !45
  %5 = load ptr, ptr %3, align 8
  call void @_ZN4LIEF5MachO10RelocationC2Ev(ptr noundef nonnull align 8 dereferenceable(56) %5)
  store ptr getelementptr inbounds inrange(-16, 160) ({ [22 x ptr] }, ptr @_ZTVN4LIEF5MachO16RelocationObjectE, i32 0, i32 0, i32 2), ptr %5, align 8, !tbaa !19
  %6 = getelementptr inbounds nuw %"class.LIEF::MachO::RelocationObject", ptr %5, i32 0, i32 1
  %7 = load ptr, ptr %4, align 8, !tbaa !45
  %8 = load i32, ptr %7, align 4
  %9 = lshr i32 %8, 30
  %10 = and i32 %9, 1
  %11 = icmp ne i32 %10, 0
  %12 = zext i1 %11 to i8
  store i8 %12, ptr %6, align 8, !tbaa !21
  %13 = getelementptr inbounds nuw %"class.LIEF::MachO::RelocationObject", ptr %5, i32 0, i32 2
  store i8 1, ptr %13, align 1, !tbaa !32
  %14 = getelementptr inbounds nuw %"class.LIEF::MachO::RelocationObject", ptr %5, i32 0, i32 3
  %15 = load ptr, ptr %4, align 8, !tbaa !45
  %16 = getelementptr inbounds nuw %"struct.LIEF::MachO::details::scattered_relocation_info", ptr %15, i32 0, i32 1
  %17 = load i32, ptr %16, align 4, !tbaa !47
  store i32 %17, ptr %14, align 4, !tbaa !33
  %18 = load ptr, ptr %4, align 8, !tbaa !45
  %19 = load i32, ptr %18, align 4
  %20 = and i32 %19, 16777215
  %21 = zext i32 %20 to i64
  %22 = getelementptr inbounds nuw %"class.LIEF::Relocation", ptr %5, i32 0, i32 1
  store i64 %21, ptr %22, align 8, !tbaa !36
  %23 = load ptr, ptr %4, align 8, !tbaa !45
  %24 = load i32, ptr %23, align 4
  %25 = lshr i32 %24, 28
  %26 = and i32 %25, 3
  %27 = trunc i32 %26 to i8
  %28 = getelementptr inbounds nuw %"class.LIEF::Relocation", ptr %5, i32 0, i32 2
  store i8 %27, ptr %28, align 8, !tbaa !37
  %29 = load ptr, ptr %4, align 8, !tbaa !45
  %30 = load i32, ptr %29, align 4
  %31 = lshr i32 %30, 24
  %32 = and i32 %31, 15
  %33 = trunc i32 %32 to i8
  %34 = getelementptr inbounds nuw %"class.LIEF::MachO::Relocation", ptr %5, i32 0, i32 2
  store i8 %33, ptr %34, align 8, !tbaa !38
  ret void
}