; Function Attrs: mustprogress nounwind uwtable
define void @_ZN4LIEF5MachO16RelocationObjectC2ERKNS0_7details25scattered_relocation_infoE(ptr noundef nonnull align 8 dereferenceable(64) %0, ptr noundef nonnull readonly align 4 captures(none) dereferenceable(8) %1) unnamed_addr #1 align 2 {
  tail call void @_ZN4LIEF6ObjectC2Ev(ptr noundef nonnull align 8 dereferenceable(56) %0) #22
  %3 = getelementptr inbounds nuw i8, ptr %0, i64 8
  store i64 0, ptr %3, align 8, !tbaa !3
  %4 = getelementptr inbounds nuw i8, ptr %0, i64 16
  store i8 0, ptr %4, align 8, !tbaa !9
  %5 = getelementptr inbounds nuw i8, ptr %0, i64 24
  store ptr null, ptr %5, align 8, !tbaa !10
  %6 = getelementptr inbounds nuw i8, ptr %0, i64 32
  store i8 0, ptr %6, align 8, !tbaa !17
  %7 = getelementptr inbounds nuw i8, ptr %0, i64 36
  store i32 -1, ptr %7, align 4, !tbaa !18
  %8 = getelementptr inbounds nuw i8, ptr %0, i64 40
  tail call void @llvm.memset.p0.i64(ptr noundef nonnull align 8 dereferenceable(16) %8, i8 0, i64 16, i1 false)
  store ptr getelementptr inbounds nuw inrange(-16, 160) (i8, ptr @_ZTVN4LIEF5MachO16RelocationObjectE, i64 16), ptr %0, align 8, !tbaa !19
  %9 = getelementptr inbounds nuw i8, ptr %0, i64 56
  %10 = load i32, ptr %1, align 4
  %11 = lshr i32 %10, 30
  %12 = trunc nuw nsw i32 %11 to i8
  %13 = and i8 %12, 1
  store i8 %13, ptr %9, align 8, !tbaa !21
  %14 = getelementptr inbounds nuw i8, ptr %0, i64 57
  store i8 1, ptr %14, align 1, !tbaa !25
  %15 = getelementptr inbounds nuw i8, ptr %0, i64 60
  %16 = getelementptr inbounds nuw i8, ptr %1, i64 4
  %17 = load i32, ptr %16, align 4, !tbaa !29
  store i32 %17, ptr %15, align 4, !tbaa !26
  %18 = load i32, ptr %1, align 4
  %19 = and i32 %18, 16777215
  %20 = zext nneg i32 %19 to i64
  store i64 %20, ptr %3, align 8, !tbaa !3
  %21 = load i32, ptr %1, align 4
  %22 = lshr i32 %21, 28
  %23 = trunc nuw nsw i32 %22 to i8
  %24 = and i8 %23, 3
  store i8 %24, ptr %4, align 8, !tbaa !9
  %25 = load i32, ptr %1, align 4
  %26 = lshr i32 %25, 24
  %27 = trunc nuw i32 %26 to i8
  %28 = and i8 %27, 15
  store i8 %28, ptr %6, align 8, !tbaa !17
  ret void
}